target datalayout = "e-m:e-p270:32:32-p271:32:32-p272:64:64-i64:64-i128:128-f80:128-n8:16:32:64-S128"
target triple = "x86_64-pc-linux-gnu"

%struct.FunctionCallInfoBaseData = type { ptr, ptr, ptr, i32, i8, i16, [0 x %struct.NullableDatum] }
%struct.NullableDatum = type { i64, i8 }

@.str.12 = private unnamed_addr constant [2 x i8] c"0\00", align 1

; Function Attrs: inlinehint nounwind uwtable
define internal i64 @PointerGetDatum(ptr noundef %0) #2 {
  %2 = alloca ptr, align 8
  store ptr %0, ptr %2, align 8
  %3 = load ptr, ptr %2, align 8
  %4 = ptrtoint ptr %3 to i64
  ret i64 %4
}

; Function Attrs: inlinehint nounwind uwtable
define internal i64 @CStringGetDatum(ptr noundef %0) #2 {
  %2 = alloca ptr, align 8
  store ptr %0, ptr %2, align 8
  %3 = load ptr, ptr %2, align 8
  %4 = call i64 @PointerGetDatum(ptr noundef %3)
  ret i64 %4
}

; Function Attrs: nounwind uwtable
define dso_local ptr @format_operator(i32 noundef %0) #0 {
  %2 = alloca i32, align 4
  store i32 %0, ptr %2, align 4
  %3 = load i32, ptr %2, align 4
  %4 = call ptr @format_operator_extended(i32 noundef %3, i16 noundef zeroext 0)
  ret ptr %4
}

; Function Attrs: inlinehint nounwind uwtable
define internal i32 @DatumGetObjectId(i64 noundef %0) #2 {
  %2 = alloca i64, align 8
  store i64 %0, ptr %2, align 8
  %3 = load i64, ptr %2, align 8
  %4 = trunc i64 %3 to i32
  ret i32 %4
}

; Function Attrs: nounwind uwtable
define dso_local i64 @regoperatorout(ptr noundef %0) #0 {
  %2 = alloca ptr, align 8
  %3 = alloca i32, align 4
  %4 = alloca ptr, align 8
  store ptr %0, ptr %2, align 8
  call void @llvm.lifetime.start.p0(i64 4, ptr %3) #8
  %5 = load ptr, ptr %2, align 8
  %6 = getelementptr inbounds nuw %struct.FunctionCallInfoBaseData, ptr %5, i32 0, i32 6
  %7 = getelementptr inbounds [0 x %struct.NullableDatum], ptr %6, i64 0, i64 0
  %8 = getelementptr inbounds nuw %struct.NullableDatum, ptr %7, i32 0, i32 0
  %9 = load i64, ptr %8, align 8
  %10 = call i32 @DatumGetObjectId(i64 noundef %9)
  store i32 %10, ptr %3, align 4
  call void @llvm.lifetime.start.p0(i64 8, ptr %4) #8
  %11 = load i32, ptr %3, align 4
  %12 = icmp eq i32 %11, 0
  br i1 %12, label %13, label %15

13:                                               ; preds = %1
  %14 = call ptr @pstrdup(ptr noundef @.str.12)
  store ptr %14, ptr %4, align 8
  br label %18

15:                                               ; preds = %1
  %16 = load i32, ptr %3, align 4
  %17 = call ptr @format_operator(i32 noundef %16)
  store ptr %17, ptr %4, align 8
  br label %18

18:                                               ; preds = %15, %13
  %19 = load ptr, ptr %4, align 8
  %20 = call i64 @CStringGetDatum(ptr noundef %19)
  call void @llvm.lifetime.end.p0(i64 8, ptr %4) #8
  call void @llvm.lifetime.end.p0(i64 4, ptr %3) #8
  ret i64 %20
}