; Function Attrs: nounwind uwtable
define dso_local i64 @regoperatorout(ptr noundef readonly captures(none) %0) local_unnamed_addr #0 {
  %2 = getelementptr inbounds nuw i8, ptr %0, i64 32
  %3 = load i64, ptr %2, align 8
  %4 = trunc i64 %3 to i32
  %5 = icmp eq i32 %4, 0
  br i1 %5, label %6, label %8

6:                                                ; preds = %1
  %7 = tail call ptr @pstrdup(ptr noundef nonnull @.str.12) #9
  br label %10

8:                                                ; preds = %1
  %9 = tail call ptr @format_operator_extended(i32 noundef %4, i16 noundef zeroext 0)
  br label %10

10:                                               ; preds = %8, %6
  %.0 = phi ptr [ %7, %6 ], [ %9, %8 ]
  %11 = ptrtoint ptr %.0 to i64
  ret i64 %11
}